; Function Attrs: mustprogress uwtable
define void @_ZN2cv3hal9fastAtan2EPKfS2_Pfib(ptr noundef readonly captures(none) %0, ptr noundef readonly captures(none) %1, ptr noundef writeonly captures(none) %2, i32 noundef %3, i1 noundef zeroext %4) local_unnamed_addr #0 personality ptr @__gxx_personality_v0 {
  %6 = alloca %"class.cv::utils::trace::details::Region", align 8
  %7 = alloca %"class.cv::utils::trace::details::Region", align 8
  call void @llvm.lifetime.start.p0(i64 16, ptr nonnull %7) #12
  call void @_ZN2cv5utils5trace7details6RegionC1ERKNS3_21LocationStaticStorageE(ptr noundef nonnull align 8 dereferenceable(12) %7, ptr noundef nonnull align 8 dereferenceable(32) @_ZZN2cv3hal9fastAtan2EPKfS2_PfibE24__cv_trace_location_fn55)
  call void @llvm.lifetime.start.p0(i64 16, ptr nonnull %6) #12
  invoke void @_ZN2cv5utils5trace7details6RegionC1ERKNS3_21LocationStaticStorageE(ptr noundef nonnull align 8 dereferenceable(12) %6, ptr noundef nonnull align 8 dereferenceable(32) @_ZZN2cv3hal11fastAtan32fEPKfS2_PfibE24__cv_trace_location_fn34)
          to label %.noexc unwind label %23

.noexc:                                           ; preds = %5
  invoke void @_ZN2cv3hal12cpu_baseline11fastAtan32fEPKfS3_Pfib(ptr noundef readonly %0, ptr noundef readonly %1, ptr noundef %2, i32 noundef %3, i1 noundef zeroext %4)
          to label %.critedge.i unwind label %14

.critedge.i:                                      ; preds = %.noexc
  %8 = getelementptr inbounds nuw i8, ptr %6, i64 8
  %9 = load i32, ptr %8, align 8, !tbaa !9
  %.not.i.i = icmp eq i32 %9, 0
  br i1 %.not.i.i, label %16, label %10

10:                                               ; preds = %.critedge.i
  invoke void @_ZN2cv5utils5trace7details6Region7destroyEv(ptr noundef nonnull align 8 dereferenceable(12) %6)
          to label %16 unwind label %11

11:                                               ; preds = %10
  %12 = landingpad { ptr, i32 }
          catch ptr null
  %13 = extractvalue { ptr, i32 } %12, 0
  call void @__clang_call_terminate(ptr %13) #13
  unreachable

14:                                               ; preds = %.noexc
  %15 = landingpad { ptr, i32 }
          cleanup
  call void @_ZN2cv5utils5trace7details6RegionD2Ev(ptr noundef nonnull align 8 dereferenceable(12) %6) #12
  call void @llvm.lifetime.end.p0(i64 16, ptr nonnull %6) #12
  br label %.body

16:                                               ; preds = %10, %.critedge.i
  call void @llvm.lifetime.end.p0(i64 16, ptr nonnull %6) #12
  %17 = getelementptr inbounds nuw i8, ptr %7, i64 8
  %18 = load i32, ptr %17, align 8, !tbaa !9
  %.not.i = icmp eq i32 %18, 0
  br i1 %.not.i, label %_ZN2cv5utils5trace7details6RegionD2Ev.exit, label %19

19:                                               ; preds = %16
  invoke void @_ZN2cv5utils5trace7details6Region7destroyEv(ptr noundef nonnull align 8 dereferenceable(12) %7)
          to label %_ZN2cv5utils5trace7details6RegionD2Ev.exit unwind label %20

20:                                               ; preds = %19
  %21 = landingpad { ptr, i32 }
          catch ptr null
  %22 = extractvalue { ptr, i32 } %21, 0
  call void @__clang_call_terminate(ptr %22) #13
  unreachable

_ZN2cv5utils5trace7details6RegionD2Ev.exit:       ; preds = %16, %19
  call void @llvm.lifetime.end.p0(i64 16, ptr nonnull %7) #12
  ret void

23:                                               ; preds = %5
  %24 = landingpad { ptr, i32 }
          cleanup
  br label %.body

.body:                                            ; preds = %14, %23
  %eh.lpad-body = phi { ptr, i32 } [ %24, %23 ], [ %15, %14 ]
  call void @_ZN2cv5utils5trace7details6RegionD2Ev(ptr noundef nonnull align 8 dereferenceable(12) %7) #12
  call void @llvm.lifetime.end.p0(i64 16, ptr nonnull %7) #12
  resume { ptr, i32 } %eh.lpad-body
}